target datalayout = "e-m:e-p270:32:32-p271:32:32-p272:64:64-i64:64-i128:128-f80:128-n8:16:32:64-S128"
target triple = "x86_64-pc-linux-gnu"

%"class.std::__cxx11::basic_string" = type { %"struct.std::__cxx11::basic_string<char>::_Alloc_hider", i64, %union.anon }
%"struct.std::__cxx11::basic_string<char>::_Alloc_hider" = type { ptr }
%union.anon = type { i64, [8 x i8] }
%"class.testing::UnitTest" = type { ptr, %"class.testing::internal::Mutex", ptr }
%"class.testing::internal::Mutex" = type { %"class.testing::internal::MutexBase" }
%"class.testing::internal::MutexBase" = type { %union.pthread_mutex_t, i8, i64 }
%union.pthread_mutex_t = type { %struct.__pthread_mutex_s }
%struct.__pthread_mutex_s = type { i32, i32, i32, i32, i32, i16, i16, %struct.__pthread_internal_list }
%struct.__pthread_internal_list = type { ptr, ptr }

@__dso_handle = external hidden global i8
@_ZZN7testing8UnitTest11GetInstanceEvE8instance = internal global %"class.testing::UnitTest" zeroinitializer, align 8
@_ZGVZN7testing8UnitTest11GetInstanceEvE8instance = internal global i64 0, align 8
@_ZN7testing8UnitTestC1Ev = unnamed_addr alias void (ptr), ptr @_ZN7testing8UnitTestC2Ev
@_ZN7testing8UnitTestD1Ev = unnamed_addr alias void (ptr), ptr @_ZN7testing8UnitTestD2Ev

; Function Attrs: mustprogress nounwind uwtable
define linkonce_odr noundef ptr @_ZN7testing8UnitTest4implEv(ptr noundef nonnull align 8 dereferenceable(72) %0) #7 comdat align 2 {
  %2 = alloca ptr, align 8
  store ptr %0, ptr %2, align 8, !tbaa !437
  %3 = load ptr, ptr %2, align 8
  %4 = getelementptr inbounds nuw %"class.testing::UnitTest", ptr %3, i32 0, i32 2
  %5 = load ptr, ptr %4, align 8, !tbaa !438
  ret ptr %5
}

; Function Attrs: mustprogress uwtable
define noundef ptr @_ZN7testing8UnitTest11GetInstanceEv() #4 align 2 personality ptr @__gxx_personality_v0 {
  %1 = alloca ptr, align 8
  %2 = alloca i32, align 4
  %3 = load atomic i8, ptr @_ZGVZN7testing8UnitTest11GetInstanceEvE8instance acquire, align 8
  %4 = icmp eq i8 %3, 0
  br i1 %4, label %5, label %11, !prof !240

5:                                                ; preds = %0
  %6 = call i32 @__cxa_guard_acquire(ptr @_ZGVZN7testing8UnitTest11GetInstanceEvE8instance) #3
  %7 = icmp ne i32 %6, 0
  br i1 %7, label %8, label %11

8:                                                ; preds = %5
  invoke void @_ZN7testing8UnitTestC1Ev(ptr noundef nonnull align 8 dereferenceable(72) @_ZZN7testing8UnitTest11GetInstanceEvE8instance)
          to label %9 unwind label %12

9:                                                ; preds = %8
  %10 = call i32 @__cxa_atexit(ptr @_ZN7testing8UnitTestD1Ev, ptr @_ZZN7testing8UnitTest11GetInstanceEvE8instance, ptr @__dso_handle) #3
  call void @__cxa_guard_release(ptr @_ZGVZN7testing8UnitTest11GetInstanceEvE8instance) #3
  br label %11

11:                                               ; preds = %9, %5, %0
  ret ptr @_ZZN7testing8UnitTest11GetInstanceEvE8instance

12:                                               ; preds = %8
  %13 = landingpad { ptr, i32 }
          cleanup
  %14 = extractvalue { ptr, i32 } %13, 0
  store ptr %14, ptr %1, align 8
  %15 = extractvalue { ptr, i32 } %13, 1
  store i32 %15, ptr %2, align 4
  call void @__cxa_guard_abort(ptr @_ZGVZN7testing8UnitTest11GetInstanceEvE8instance) #3
  br label %16

16:                                               ; preds = %12
  %17 = load ptr, ptr %1, align 8
  %18 = load i32, ptr %2, align 4
  %19 = insertvalue { ptr, i32 } poison, ptr %17, 0
  %20 = insertvalue { ptr, i32 } %19, i32 %18, 1
  resume { ptr, i32 } %20
}

; Function Attrs: inlinehint mustprogress uwtable
define linkonce_odr noundef ptr @_ZN7testing8internal15GetUnitTestImplEv() #11 comdat {
  %1 = call noundef ptr @_ZN7testing8UnitTest11GetInstanceEv()
  %2 = call noundef ptr @_ZN7testing8UnitTest4implEv(ptr noundef nonnull align 8 dereferenceable(72) %1)
  ret ptr %2
}

; Function Attrs: mustprogress noinline uwtable
define void @_ZN7testing8internal31GetCurrentOsStackTraceExceptTopB5cxx11Ei(ptr dead_on_unwind noalias writable sret(%"class.std::__cxx11::basic_string") align 8 %0, i32 noundef %1) #19 {
  %3 = alloca ptr, align 8
  %4 = alloca i32, align 4
  store ptr %0, ptr %3, align 8
  store i32 %1, ptr %4, align 4, !tbaa !39
  %5 = call noundef ptr @_ZN7testing8internal15GetUnitTestImplEv()
  %6 = load i32, ptr %4, align 4, !tbaa !39
  %7 = add nsw i32 %6, 1
  call void @_ZN7testing8internal12UnitTestImpl28CurrentOsStackTraceExceptTopB5cxx11Ei(ptr dead_on_unwind writable sret(%"class.std::__cxx11::basic_string") align 8 %0, ptr noundef nonnull align 8 dereferenceable(601) %5, i32 noundef %7)
  ret void
}